target datalayout = "e-m:e-p270:32:32-p271:32:32-p272:64:64-i64:64-i128:128-f80:128-n8:16:32:64-S128"
target triple = "x86_64-pc-linux-gnu"

%struct.t_rgb = type { double, double, double }
%struct.t_xpmelmt = type { i8, i8 }
%struct.t_mapping = type { %struct.t_xpmelmt, %"class.std::__cxx11::basic_string", %struct.t_rgb }
%"class.std::__cxx11::basic_string" = type { %"struct.std::__cxx11::basic_string<char>::_Alloc_hider", i64, %union.anon }
%"struct.std::__cxx11::basic_string<char>::_Alloc_hider" = type { ptr }
%union.anon = type { i64, [8 x i8] }

@.str.11 = private unnamed_addr constant [4 x i8] c"%d\0A\00", align 1
@.str.12 = private unnamed_addr constant [30 x i8] c"%c%c  %20s  %10g  %10g  %10g\0A\00", align 1

; Function Attrs: mustprogress nounwind uwtable
define void @_Z9printcmapP8_IO_FILEiPK9t_mapping(ptr noundef %0, i32 noundef %1, ptr noundef %2) #2 {
  %4 = alloca ptr, align 8
  %5 = alloca i32, align 4
  %6 = alloca ptr, align 8
  %7 = alloca i32, align 4
  store ptr %0, ptr %4, align 8
  store i32 %1, ptr %5, align 4
  store ptr %2, ptr %6, align 8
  %8 = load ptr, ptr %4, align 8
  %9 = load i32, ptr %5, align 4
  %10 = call i32 (ptr, ptr, ...) @fprintf(ptr noundef %8, ptr noundef @.str.11, i32 noundef %9) #14
  store i32 0, ptr %7, align 4
  br label %11

11:                                               ; preds = %85, %3
  %12 = load i32, ptr %7, align 4
  %13 = load i32, ptr %5, align 4
  %14 = icmp slt i32 %12, %13
  br i1 %14, label %15, label %88

15:                                               ; preds = %11
  %16 = load ptr, ptr %4, align 8
  %17 = load ptr, ptr %6, align 8
  %18 = load i32, ptr %7, align 4
  %19 = sext i32 %18 to i64
  %20 = getelementptr inbounds %struct.t_mapping, ptr %17, i64 %19
  %21 = getelementptr inbounds %struct.t_mapping, ptr %20, i32 0, i32 0
  %22 = getelementptr inbounds %struct.t_xpmelmt, ptr %21, i32 0, i32 0
  %23 = load i8, ptr %22, align 8
  %24 = icmp ne i8 %23, 0
  br i1 %24, label %25, label %33

25:                                               ; preds = %15
  %26 = load ptr, ptr %6, align 8
  %27 = load i32, ptr %7, align 4
  %28 = sext i32 %27 to i64
  %29 = getelementptr inbounds %struct.t_mapping, ptr %26, i64 %28
  %30 = getelementptr inbounds %struct.t_mapping, ptr %29, i32 0, i32 0
  %31 = getelementptr inbounds %struct.t_xpmelmt, ptr %30, i32 0, i32 0
  %32 = load i8, ptr %31, align 8
  br label %34

33:                                               ; preds = %15
  br label %34

34:                                               ; preds = %33, %25
  %35 = phi i8 [ %32, %25 ], [ 32, %33 ]
  %36 = sext i8 %35 to i32
  %37 = load ptr, ptr %6, align 8
  %38 = load i32, ptr %7, align 4
  %39 = sext i32 %38 to i64
  %40 = getelementptr inbounds %struct.t_mapping, ptr %37, i64 %39
  %41 = getelementptr inbounds %struct.t_mapping, ptr %40, i32 0, i32 0
  %42 = getelementptr inbounds %struct.t_xpmelmt, ptr %41, i32 0, i32 1
  %43 = load i8, ptr %42, align 1
  %44 = icmp ne i8 %43, 0
  br i1 %44, label %45, label %53

45:                                               ; preds = %34
  %46 = load ptr, ptr %6, align 8
  %47 = load i32, ptr %7, align 4
  %48 = sext i32 %47 to i64
  %49 = getelementptr inbounds %struct.t_mapping, ptr %46, i64 %48
  %50 = getelementptr inbounds %struct.t_mapping, ptr %49, i32 0, i32 0
  %51 = getelementptr inbounds %struct.t_xpmelmt, ptr %50, i32 0, i32 1
  %52 = load i8, ptr %51, align 1
  br label %54

53:                                               ; preds = %34
  br label %54

54:                                               ; preds = %53, %45
  %55 = phi i8 [ %52, %45 ], [ 32, %53 ]
  %56 = sext i8 %55 to i32
  %57 = load ptr, ptr %6, align 8
  %58 = load i32, ptr %7, align 4
  %59 = sext i32 %58 to i64
  %60 = getelementptr inbounds %struct.t_mapping, ptr %57, i64 %59
  %61 = getelementptr inbounds %struct.t_mapping, ptr %60, i32 0, i32 1
  %62 = call noundef ptr @_ZNKSt7__cxx1112basic_stringIcSt11char_traitsIcESaIcEE5c_strEv(ptr noundef nonnull align 8 dereferenceable(32) %61) #14
  %63 = load ptr, ptr %6, align 8
  %64 = load i32, ptr %7, align 4
  %65 = sext i32 %64 to i64
  %66 = getelementptr inbounds %struct.t_mapping, ptr %63, i64 %65
  %67 = getelementptr inbounds %struct.t_mapping, ptr %66, i32 0, i32 2
  %68 = getelementptr inbounds %struct.t_rgb, ptr %67, i32 0, i32 0
  %69 = load double, ptr %68, align 8
  %70 = load ptr, ptr %6, align 8
  %71 = load i32, ptr %7, align 4
  %72 = sext i32 %71 to i64
  %73 = getelementptr inbounds %struct.t_mapping, ptr %70, i64 %72
  %74 = getelementptr inbounds %struct.t_mapping, ptr %73, i32 0, i32 2
  %75 = getelementptr inbounds %struct.t_rgb, ptr %74, i32 0, i32 1
  %76 = load double, ptr %75, align 8
  %77 = load ptr, ptr %6, align 8
  %78 = load i32, ptr %7, align 4
  %79 = sext i32 %78 to i64
  %80 = getelementptr inbounds %struct.t_mapping, ptr %77, i64 %79
  %81 = getelementptr inbounds %struct.t_mapping, ptr %80, i32 0, i32 2
  %82 = getelementptr inbounds %struct.t_rgb, ptr %81, i32 0, i32 2
  %83 = load double, ptr %82, align 8
  %84 = call i32 (ptr, ptr, ...) @fprintf(ptr noundef %16, ptr noundef @.str.12, i32 noundef %36, i32 noundef %56, ptr noundef %62, double noundef %69, double noundef %76, double noundef %83) #14
  br label %85

85:                                               ; preds = %54
  %86 = load i32, ptr %7, align 4
  %87 = add nsw i32 %86, 1
  store i32 %87, ptr %7, align 4
  br label %11, !llvm.loop !13

88:                                               ; preds = %11
  ret void
}