; Function Attrs: mustprogress nounwind uwtable
define void @_Z9printcmapP8_IO_FILEiPK9t_mapping(ptr nocapture noundef %0, i32 noundef %1, ptr noundef %2) local_unnamed_addr #6 {
  %4 = tail call i32 (ptr, ptr, ...) @fprintf(ptr noundef %0, ptr noundef nonnull @.str.11, i32 noundef %1) #24
  %5 = icmp sgt i32 %1, 0
  br i1 %5, label %.lr.ph.preheader, label %._crit_edge

.lr.ph.preheader:                                 ; preds = %3
  %wide.trip.count = zext nneg i32 %1 to i64
  br label %.lr.ph

.lr.ph:                                           ; preds = %.lr.ph.preheader, %.lr.ph
  %indvars.iv = phi i64 [ 0, %.lr.ph.preheader ], [ %indvars.iv.next, %.lr.ph ]
  %6 = getelementptr inbounds %struct.t_mapping, ptr %2, i64 %indvars.iv
  %7 = load i8, ptr %6, align 8
  %.not = icmp eq i8 %7, 0
  %spec.select = select i1 %.not, i8 32, i8 %7
  %8 = sext i8 %spec.select to i32
  %9 = getelementptr inbounds i8, ptr %6, i64 1
  %10 = load i8, ptr %9, align 1
  %.not23 = icmp eq i8 %10, 0
  %11 = select i1 %.not23, i8 32, i8 %10
  %12 = sext i8 %11 to i32
  %13 = getelementptr inbounds i8, ptr %6, i64 8
  %14 = tail call noundef ptr @_ZNKSt7__cxx1112basic_stringIcSt11char_traitsIcESaIcEE5c_strEv(ptr noundef nonnull align 8 dereferenceable(32) %13) #24
  %15 = getelementptr inbounds i8, ptr %6, i64 40
  %16 = load double, ptr %15, align 8
  %17 = getelementptr inbounds i8, ptr %6, i64 48
  %18 = load double, ptr %17, align 8
  %19 = getelementptr inbounds i8, ptr %6, i64 56
  %20 = load double, ptr %19, align 8
  %21 = tail call i32 (ptr, ptr, ...) @fprintf(ptr noundef %0, ptr noundef nonnull @.str.12, i32 noundef %8, i32 noundef %12, ptr noundef %14, double noundef %16, double noundef %18, double noundef %20) #24
  %indvars.iv.next = add nuw nsw i64 %indvars.iv, 1
  %exitcond.not = icmp eq i64 %indvars.iv.next, %wide.trip.count
  br i1 %exitcond.not, label %._crit_edge, label %.lr.ph, !llvm.loop !25

._crit_edge:                                      ; preds = %.lr.ph, %3
  ret void
}